	.file	"game.c"
	.text
.Ltext0:
	.file 0 "/mnt/c/Users/(808)/Documents/GitHub/Dwayne-St-George/myprojects/tikTakToe" "game.c"
	.section	.rodata
	.align 8
.LC0:
	.string	"\nIf you want to play again then press 1: "
.LC1:
	.string	"%s"
.LC2:
	.string	"clear"
	.text
	.globl	main
	.type	main, @function
main:
.LFB6:
	.file 1 "game.c"
	.loc 1 33 1
	.cfi_startproc
	endbr64
	pushq	%rbp
	.cfi_def_cfa_offset 16
	.cfi_offset 6, -16
	movq	%rsp, %rbp
	.cfi_def_cfa_register 6
	subq	$16, %rsp
	.loc 1 33 1
	movq	%fs:40, %rax
	movq	%rax, -8(%rbp)
	xorl	%eax, %eax
.L2:
	.loc 1 37 5
	movl	$0, %eax
	call	run
	.loc 1 39 5
	leaq	.LC0(%rip), %rax
	movq	%rax, %rdi
	call	puts@PLT
	.loc 1 40 5
	leaq	-9(%rbp), %rax
	movq	%rax, %rsi
	leaq	.LC1(%rip), %rax
	movq	%rax, %rdi
	movl	$0, %eax
	call	__isoc99_scanf@PLT
	.loc 1 43 17
	movzbl	-9(%rbp), %eax
	.loc 1 43 8
	cmpb	$49, %al
	jne	.L3
	.loc 1 45 9
	leaq	.LC2(%rip), %rax
	movq	%rax, %rdi
	call	system@PLT
	.loc 1 47 9
	jmp	.L2
.L3:
	.loc 1 53 9
	movl	$0, %edi
	call	exit@PLT
	.cfi_endproc
.LFE6:
	.size	main, .-main
	.globl	run
	.type	run, @function
run:
.LFB7:
	.loc 1 61 1
	.cfi_startproc
	endbr64
	pushq	%rbp
	.cfi_def_cfa_offset 16
	.cfi_offset 6, -16
	movq	%rsp, %rbp
	.cfi_def_cfa_register 6
	subq	$32, %rsp
	.loc 1 61 1
	movq	%fs:40, %rax
	movq	%rax, -8(%rbp)
	xorl	%eax, %eax
	.loc 1 62 9
	movl	$0, -32(%rbp)
	.loc 1 64 10
	movabsq	$4050765991979987505, %rax
	movq	%rax, -17(%rbp)
	movb	$57, -9(%rbp)
	.loc 1 66 5
	leaq	-17(%rbp), %rax
	movq	%rax, %rdi
	call	display
.L6:
	.loc 1 69 12
	movl	-32(%rbp), %edx
	leaq	-17(%rbp), %rax
	movl	%edx, %esi
	movq	%rax, %rdi
	call	inputValue_t
	movq	%rax, -28(%rbp)
	.loc 1 71 16
	movl	-28(%rbp), %eax
	.loc 1 71 26
	movzbl	-24(%rbp), %edx
	.loc 1 71 20
	cltq
	movb	%dl, -17(%rbp,%rax)
	.loc 1 73 5
	leaq	.LC2(%rip), %rax
	movq	%rax, %rdi
	call	system@PLT
	.loc 1 75 5
	leaq	-17(%rbp), %rax
	movq	%rax, %rdi
	call	display
	.loc 1 78 28
	movzbl	-24(%rbp), %eax
	.loc 1 78 9
	movsbl	%al, %ecx
	movl	-32(%rbp), %edx
	leaq	-17(%rbp), %rax
	movl	%ecx, %esi
	movq	%rax, %rdi
	call	check
	.loc 1 78 8
	cmpl	$1, %eax
	je	.L9
	.loc 1 87 14
	addl	$1, -32(%rbp)
	.loc 1 89 9
	jmp	.L6
.L9:
	.loc 1 91 1
	nop
	movq	-8(%rbp), %rax
	subq	%fs:40, %rax
	je	.L8
	call	__stack_chk_fail@PLT
.L8:
	leave
	.cfi_def_cfa 7, 8
	ret
	.cfi_endproc
.LFE7:
	.size	run, .-run
	.section	.rodata
.LC3:
	.string	"The Winner is: %c \n"
.LC4:
	.string	"The Game is Drawn "
	.text
	.globl	check
	.type	check, @function
check:
.LFB8:
	.loc 1 96 1
	.cfi_startproc
	endbr64
	pushq	%rbp
	.cfi_def_cfa_offset 16
	.cfi_offset 6, -16
	movq	%rsp, %rbp
	.cfi_def_cfa_register 6
	subq	$32, %rsp
	movq	%rdi, -24(%rbp)
	movl	%esi, %eax
	movl	%edx, -32(%rbp)
	movb	%al, -28(%rbp)
.LBB2:
	.loc 1 97 14
	movl	$0, -8(%rbp)
	.loc 1 97 5
	jmp	.L11
.L14:
	.loc 1 99 16
	movl	-8(%rbp), %eax
	movslq	%eax, %rdx
	movq	-24(%rbp), %rax
	addq	%rdx, %rax
	movzbl	(%rax), %eax
	.loc 1 99 12
	cmpb	%al, -28(%rbp)
	jne	.L12
	.loc 1 99 32 discriminator 1
	movl	-8(%rbp), %eax
	cltq
	leaq	1(%rax), %rdx
	movq	-24(%rbp), %rax
	addq	%rdx, %rax
	movzbl	(%rax), %eax
	.loc 1 99 26 discriminator 1
	cmpb	%al, -28(%rbp)
	jne	.L12
	.loc 1 99 52 discriminator 2
	movl	-8(%rbp), %eax
	cltq
	leaq	2(%rax), %rdx
	movq	-24(%rbp), %rax
	addq	%rdx, %rax
	movzbl	(%rax), %eax
	.loc 1 99 46 discriminator 2
	cmpb	%al, -28(%rbp)
	jne	.L12
	.loc 1 101 13
	movsbl	-28(%rbp), %eax
	movl	%eax, %esi
	leaq	.LC3(%rip), %rax
	movq	%rax, %rdi
	movl	$0, %eax
	call	printf@PLT
	.loc 1 103 20
	movl	$1, %eax
	jmp	.L10
.L12:
	.loc 1 97 29 discriminator 2
	addl	$3, -8(%rbp)
.L11:
	.loc 1 97 23 discriminator 1
	cmpl	$5, -8(%rbp)
	jle	.L14
.LBE2:
.LBB3:
	.loc 1 107 14
	movl	$0, -4(%rbp)
	.loc 1 107 5
	nop
	.loc 1 107 23
	cmpl	$2, -4(%rbp)
	jg	.L21
	.loc 1 109 16
	movl	-4(%rbp), %eax
	movslq	%eax, %rdx
	movq	-24(%rbp), %rax
	addq	%rdx, %rax
	movzbl	(%rax), %eax
	.loc 1 109 12
	cmpb	%al, -28(%rbp)
	jne	.L16
	.loc 1 109 32 discriminator 1
	movl	-4(%rbp), %eax
	cltq
	leaq	3(%rax), %rdx
	movq	-24(%rbp), %rax
	addq	%rdx, %rax
	movzbl	(%rax), %eax
	.loc 1 109 26 discriminator 1
	cmpb	%al, -28(%rbp)
	jne	.L16
	.loc 1 109 52 discriminator 2
	movl	-4(%rbp), %eax
	cltq
	leaq	6(%rax), %rdx
	movq	-24(%rbp), %rax
	addq	%rdx, %rax
	movzbl	(%rax), %eax
	.loc 1 109 46 discriminator 2
	cmpb	%al, -28(%rbp)
	jne	.L16
	.loc 1 111 13
	movsbl	-28(%rbp), %eax
	movl	%eax, %esi
	leaq	.LC3(%rip), %rax
	movq	%rax, %rdi
	movl	$0, %eax
	call	printf@PLT
	.loc 1 113 20
	movl	$1, %eax
	jmp	.L10
.L16:
	.loc 1 116 16
	movq	-24(%rbp), %rax
	movzbl	(%rax), %eax
	.loc 1 116 12
	cmpb	%al, -28(%rbp)
	jne	.L17
	.loc 1 116 32 discriminator 1
	movq	-24(%rbp), %rax
	addq	$4, %rax
	movzbl	(%rax), %eax
	.loc 1 116 26 discriminator 1
	cmpb	%al, -28(%rbp)
	jne	.L17
	.loc 1 116 48 discriminator 2
	movq	-24(%rbp), %rax
	addq	$8, %rax
	movzbl	(%rax), %eax
	.loc 1 116 42 discriminator 2
	cmpb	%al, -28(%rbp)
	jne	.L17
	.loc 1 118 13
	movsbl	-28(%rbp), %eax
	movl	%eax, %esi
	leaq	.LC3(%rip), %rax
	movq	%rax, %rdi
	movl	$0, %eax
	call	printf@PLT
	.loc 1 120 20
	movl	$1, %eax
	jmp	.L10
.L17:
	.loc 1 123 21
	movq	-24(%rbp), %rax
	addq	$2, %rax
	movzbl	(%rax), %eax
	.loc 1 123 17
	cmpb	%al, -28(%rbp)
	jne	.L18
	.loc 1 123 37 discriminator 1
	movq	-24(%rbp), %rax
	addq	$4, %rax
	movzbl	(%rax), %eax
	.loc 1 123 31 discriminator 1
	cmpb	%al, -28(%rbp)
	jne	.L18
	.loc 1 123 53 discriminator 2
	movq	-24(%rbp), %rax
	addq	$6, %rax
	movzbl	(%rax), %eax
	.loc 1 123 47 discriminator 2
	cmpb	%al, -28(%rbp)
	jne	.L18
	.loc 1 125 13
	movsbl	-28(%rbp), %eax
	movl	%eax, %esi
	leaq	.LC3(%rip), %rax
	movq	%rax, %rdi
	movl	$0, %eax
	call	printf@PLT
	.loc 1 127 20
	movl	$1, %eax
	jmp	.L10
.L18:
	.loc 1 130 17
	cmpl	$8, -32(%rbp)
	jne	.L19
	.loc 1 132 13
	leaq	.LC4(%rip), %rax
	movq	%rax, %rdi
	call	puts@PLT
	.loc 1 134 20
	movl	$1, %eax
	jmp	.L10
.L19:
	.loc 1 139 20
	movl	$0, %eax
	jmp	.L10
.L21:
.L10:
.LBE3:
	.loc 1 142 1
	leave
	.cfi_def_cfa 7, 8
	ret
	.cfi_endproc
.LFE8:
	.size	check, .-check
	.section	.rodata
.LC5:
	.string	"\nEnter Your Choice: X "
.LC6:
	.string	"\nEnter Your Choice: O "
.LC7:
	.string	"\nInput is not valid "
	.text
	.globl	inputValue_t
	.type	inputValue_t, @function
inputValue_t:
.LFB9:
	.loc 1 147 1
	.cfi_startproc
	endbr64
	pushq	%rbp
	.cfi_def_cfa_offset 16
	.cfi_offset 6, -16
	movq	%rsp, %rbp
	.cfi_def_cfa_register 6
	subq	$48, %rsp
	movq	%rdi, -40(%rbp)
	movl	%esi, -44(%rbp)
	.loc 1 147 1
	movq	%fs:40, %rax
	movq	%rax, -8(%rbp)
	xorl	%eax, %eax
.L23:
	.loc 1 153 19
	movl	-44(%rbp), %eax
	andl	$1, %eax
	.loc 1 153 8
	testl	%eax, %eax
	jne	.L24
	.loc 1 155 9
	leaq	.LC5(%rip), %rax
	movq	%rax, %rdi
	movl	$0, %eax
	call	printf@PLT
	jmp	.L25
.L24:
	.loc 1 160 9
	leaq	.LC6(%rip), %rax
	movq	%rax, %rdi
	movl	$0, %eax
	call	printf@PLT
.L25:
	.loc 1 163 5
	leaq	-21(%rbp), %rax
	movq	%rax, %rsi
	leaq	.LC1(%rip), %rax
	movq	%rax, %rdi
	movl	$0, %eax
	call	__isoc99_scanf@PLT
.LBB4:
	.loc 1 167 14
	movl	$0, -20(%rbp)
	.loc 1 167 5
	jmp	.L26
.L31:
	.loc 1 170 25
	movl	-20(%rbp), %eax
	movslq	%eax, %rdx
	movq	-40(%rbp), %rax
	addq	%rdx, %rax
	movzbl	(%rax), %edx
	.loc 1 170 19
	movzbl	-21(%rbp), %eax
	.loc 1 170 12
	cmpb	%al, %dl
	jne	.L27
	.loc 1 172 22
	movl	-20(%rbp), %eax
	movl	%eax, -16(%rbp)
	.loc 1 174 27
	movl	-44(%rbp), %eax
	andl	$1, %eax
	.loc 1 174 16
	testl	%eax, %eax
	jne	.L28
	.loc 1 176 27
	movb	$88, -12(%rbp)
	.loc 1 184 13
	jmp	.L30
.L28:
	.loc 1 181 27
	movb	$79, -12(%rbp)
	.loc 1 184 13
	jmp	.L30
.L27:
	.loc 1 190 22 discriminator 2
	movl	$-1, -16(%rbp)
	.loc 1 191 23 discriminator 2
	movb	$32, -12(%rbp)
	.loc 1 167 29 discriminator 2
	addl	$1, -20(%rbp)
.L26:
	.loc 1 167 23 discriminator 1
	cmpl	$8, -20(%rbp)
	jle	.L31
.L30:
.LBE4:
	.loc 1 197 15
	movl	-16(%rbp), %eax
	.loc 1 197 8
	cmpl	$-1, %eax
	jne	.L32
	.loc 1 199 9
	leaq	.LC7(%rip), %rax
	movq	%rax, %rdi
	call	puts@PLT
	.loc 1 201 9
	jmp	.L23
.L32:
	.loc 1 204 12
	movq	-16(%rbp), %rax
	.loc 1 205 1
	movq	-8(%rbp), %rdx
	subq	%fs:40, %rdx
	je	.L34
	call	__stack_chk_fail@PLT
.L34:
	leave
	.cfi_def_cfa 7, 8
	ret
	.cfi_endproc
.LFE9:
	.size	inputValue_t, .-inputValue_t
	.section	.rodata
.LC8:
	.string	"\t\t\t\t    Tic Tac Toe \n"
.LC9:
	.string	"Players 1 Symbol: X "
.LC10:
	.string	"Players 2 Symbol: O "
	.align 8
.LC11:
	.string	"\n\t\t\t           |           |            "
	.align 8
.LC12:
	.string	"\n\t\t\t     %c     |     %c     |     %c     "
	.align 8
.LC13:
	.string	"\n\t\t\t-----------|-----------|----------- "
	.align 8
.LC14:
	.string	"\n\t\t\t-----------|-----------|-----------"
.LC15:
	.string	"\n\n"
	.text
	.globl	display
	.type	display, @function
display:
.LFB10:
	.loc 1 209 1
	.cfi_startproc
	endbr64
	pushq	%rbp
	.cfi_def_cfa_offset 16
	.cfi_offset 6, -16
	movq	%rsp, %rbp
	.cfi_def_cfa_register 6
	subq	$16, %rsp
	movq	%rdi, -8(%rbp)
	.loc 1 210 5
	leaq	.LC8(%rip), %rax
	movq	%rax, %rdi
	call	puts@PLT
	.loc 1 211 5
	leaq	.LC9(%rip), %rax
	movq	%rax, %rdi
	call	puts@PLT
	.loc 1 212 5
	leaq	.LC10(%rip), %rax
	movq	%rax, %rdi
	call	puts@PLT
	.loc 1 214 5
	leaq	.LC11(%rip), %rax
	movq	%rax, %rdi
	movl	$0, %eax
	call	printf@PLT
	.loc 1 215 82
	movq	-8(%rbp), %rax
	addq	$2, %rax
	movzbl	(%rax), %eax
	.loc 1 215 5
	movsbl	%al, %ecx
	.loc 1 215 74
	movq	-8(%rbp), %rax
	addq	$1, %rax
	movzbl	(%rax), %eax
	.loc 1 215 5
	movsbl	%al, %edx
	.loc 1 215 66
	movq	-8(%rbp), %rax
	movzbl	(%rax), %eax
	.loc 1 215 5
	movsbl	%al, %eax
	movl	%eax, %esi
	leaq	.LC12(%rip), %rax
	movq	%rax, %rdi
	movl	$0, %eax
	call	printf@PLT
	.loc 1 216 5
	leaq	.LC13(%rip), %rax
	movq	%rax, %rdi
	movl	$0, %eax
	call	printf@PLT
	.loc 1 217 82
	movq	-8(%rbp), %rax
	addq	$5, %rax
	movzbl	(%rax), %eax
	.loc 1 217 5
	movsbl	%al, %ecx
	.loc 1 217 74
	movq	-8(%rbp), %rax
	addq	$4, %rax
	movzbl	(%rax), %eax
	.loc 1 217 5
	movsbl	%al, %edx
	.loc 1 217 66
	movq	-8(%rbp), %rax
	addq	$3, %rax
	movzbl	(%rax), %eax
	.loc 1 217 5
	movsbl	%al, %eax
	movl	%eax, %esi
	leaq	.LC12(%rip), %rax
	movq	%rax, %rdi
	movl	$0, %eax
	call	printf@PLT
	.loc 1 218 5
	leaq	.LC14(%rip), %rax
	movq	%rax, %rdi
	movl	$0, %eax
	call	printf@PLT
	.loc 1 219 82
	movq	-8(%rbp), %rax
	addq	$8, %rax
	movzbl	(%rax), %eax
	.loc 1 219 5
	movsbl	%al, %ecx
	.loc 1 219 74
	movq	-8(%rbp), %rax
	addq	$7, %rax
	movzbl	(%rax), %eax
	.loc 1 219 5
	movsbl	%al, %edx
	.loc 1 219 66
	movq	-8(%rbp), %rax
	addq	$6, %rax
	movzbl	(%rax), %eax
	.loc 1 219 5
	movsbl	%al, %eax
	movl	%eax, %esi
	leaq	.LC12(%rip), %rax
	movq	%rax, %rdi
	movl	$0, %eax
	call	printf@PLT
	.loc 1 220 5
	leaq	.LC11(%rip), %rax
	movq	%rax, %rdi
	movl	$0, %eax
	call	printf@PLT
	.loc 1 222 5
	leaq	.LC15(%rip), %rax
	movq	%rax, %rdi
	call	puts@PLT
	.loc 1 223 1
	nop
	leave
	.cfi_def_cfa 7, 8
	ret
	.cfi_endproc
.LFE10:
	.size	display, .-display
.Letext0:
	.file 2 "/usr/include/stdio.h"
	.file 3 "/usr/include/stdlib.h"
	.section	.note.GNU-stack,"",@progbits
	.section	.note.gnu.property,"a"
	.align 8
	.long	1f - 0f
	.long	4f - 1f
	.long	5
0:
	.string	"GNU"
1:
	.align 8
	.long	0xc0000002
	.long	3f - 2f
2:
	.long	0x3
3:
	.align 8
4:
